target datalayout = "e-m:e-p270:32:32-p271:32:32-p272:64:64-i64:64-i128:128-f80:128-n8:16:32:64-S128"
target triple = "x86_64-pc-linux-gnu"

%"class.std::basic_string_view" = type { i64, ptr }

; Function Attrs: mustprogress nounwind uwtable
define linkonce_odr noundef ptr @_ZNKSt17basic_string_viewIcSt11char_traitsIcEE3endEv(ptr noundef nonnull align 8 dereferenceable(16) %0) #0 comdat align 2 {
  %2 = alloca ptr, align 8
  store ptr %0, ptr %2, align 8, !tbaa !29
  %3 = load ptr, ptr %2, align 8
  %4 = getelementptr inbounds nuw %"class.std::basic_string_view", ptr %3, i32 0, i32 1
  %5 = load ptr, ptr %4, align 8, !tbaa !113
  %6 = getelementptr inbounds nuw %"class.std::basic_string_view", ptr %3, i32 0, i32 0
  %7 = load i64, ptr %6, align 8, !tbaa !112
  %8 = getelementptr inbounds nuw i8, ptr %5, i64 %7
  ret ptr %8
}

; Function Attrs: mustprogress nounwind uwtable
define linkonce_odr noundef ptr @_ZNKSt17basic_string_viewIcSt11char_traitsIcEE5beginEv(ptr noundef nonnull align 8 dereferenceable(16) %0) #0 comdat align 2 {
  %2 = alloca ptr, align 8
  store ptr %0, ptr %2, align 8, !tbaa !29
  %3 = load ptr, ptr %2, align 8
  %4 = getelementptr inbounds nuw %"class.std::basic_string_view", ptr %3, i32 0, i32 1
  %5 = load ptr, ptr %4, align 8, !tbaa !113
  ret ptr %5
}

; Function Attrs: mustprogress uwtable
define internal noundef zeroext i1 @_ZN12_GLOBAL__N_124isSpecialTypeReorderCodeESt17basic_string_viewIcSt11char_traitsIcEE(i64 %0, ptr %1) #1 {
  %3 = alloca i1, align 1
  %4 = alloca %"class.std::basic_string_view", align 8
  %5 = alloca i32, align 4
  %6 = alloca ptr, align 8
  %7 = alloca ptr, align 8
  %8 = alloca ptr, align 8
  %9 = alloca i32, align 4
  %10 = alloca i8, align 1
  %11 = getelementptr inbounds nuw { i64, ptr }, ptr %4, i32 0, i32 0
  store i64 %0, ptr %11, align 8
  %12 = getelementptr inbounds nuw { i64, ptr }, ptr %4, i32 0, i32 1
  store ptr %1, ptr %12, align 8
  call void @llvm.lifetime.start.p0(i64 4, ptr %5) #13
  store i32 0, ptr %5, align 4, !tbaa !14
  call void @llvm.lifetime.start.p0(i64 8, ptr %6) #13
  store ptr %4, ptr %6, align 8, !tbaa !29
  call void @llvm.lifetime.start.p0(i64 8, ptr %7) #13
  %13 = load ptr, ptr %6, align 8, !tbaa !29
  %14 = call noundef ptr @_ZNKSt17basic_string_viewIcSt11char_traitsIcEE5beginEv(ptr noundef nonnull align 8 dereferenceable(16) %13) #13
  store ptr %14, ptr %7, align 8, !tbaa !17
  call void @llvm.lifetime.start.p0(i64 8, ptr %8) #13
  %15 = load ptr, ptr %6, align 8, !tbaa !29
  %16 = call noundef ptr @_ZNKSt17basic_string_viewIcSt11char_traitsIcEE3endEv(ptr noundef nonnull align 8 dereferenceable(16) %15) #13
  store ptr %16, ptr %8, align 8, !tbaa !17
  br label %17

17:                                               ; preds = %49, %2
  %18 = load ptr, ptr %7, align 8, !tbaa !17
  %19 = load ptr, ptr %8, align 8, !tbaa !17
  %20 = icmp ne ptr %18, %19
  br i1 %20, label %22, label %21

21:                                               ; preds = %17
  store i32 2, ptr %9, align 4
  br label %52

22:                                               ; preds = %17
  call void @llvm.lifetime.start.p0(i64 1, ptr %10) #13
  %23 = load ptr, ptr %7, align 8, !tbaa !17
  %24 = load i8, ptr %23, align 1, !tbaa !46
  store i8 %24, ptr %10, align 1, !tbaa !46
  %25 = load i8, ptr %10, align 1, !tbaa !46
  %26 = sext i8 %25 to i32
  %27 = icmp eq i32 %26, 45
  br i1 %27, label %28, label %36

28:                                               ; preds = %22
  %29 = load i32, ptr %5, align 4, !tbaa !14
  %30 = icmp slt i32 %29, 3
  br i1 %30, label %34, label %31

31:                                               ; preds = %28
  %32 = load i32, ptr %5, align 4, !tbaa !14
  %33 = icmp sgt i32 %32, 8
  br i1 %33, label %34, label %35

34:                                               ; preds = %31, %28
  store i1 false, ptr %3, align 1
  store i32 1, ptr %9, align 4
  br label %46

35:                                               ; preds = %31
  store i32 0, ptr %5, align 4, !tbaa !14
  br label %45

36:                                               ; preds = %22
  %37 = load i8, ptr %10, align 1, !tbaa !46
  %38 = call signext i8 @uprv_isASCIILetter_77(i8 noundef signext %37)
  %39 = icmp ne i8 %38, 0
  br i1 %39, label %40, label %43

40:                                               ; preds = %36
  %41 = load i32, ptr %5, align 4, !tbaa !14
  %42 = add nsw i32 %41, 1
  store i32 %42, ptr %5, align 4, !tbaa !14
  br label %44

43:                                               ; preds = %36
  store i1 false, ptr %3, align 1
  store i32 1, ptr %9, align 4
  br label %46

44:                                               ; preds = %40
  br label %45

45:                                               ; preds = %44, %35
  store i32 0, ptr %9, align 4
  br label %46

46:                                               ; preds = %45, %43, %34
  call void @llvm.lifetime.end.p0(i64 1, ptr %10) #13
  %47 = load i32, ptr %9, align 4
  switch i32 %47, label %52 [
    i32 0, label %48
  ]

48:                                               ; preds = %46
  br label %49

49:                                               ; preds = %48
  %50 = load ptr, ptr %7, align 8, !tbaa !17
  %51 = getelementptr inbounds nuw i8, ptr %50, i32 1
  store ptr %51, ptr %7, align 8, !tbaa !17
  br label %17

52:                                               ; preds = %46, %21
  call void @llvm.lifetime.end.p0(i64 8, ptr %8) #13
  call void @llvm.lifetime.end.p0(i64 8, ptr %7) #13
  call void @llvm.lifetime.end.p0(i64 8, ptr %6) #13
  %53 = load i32, ptr %9, align 4
  switch i32 %53, label %62 [
    i32 2, label %54
  ]

54:                                               ; preds = %52
  %55 = load i32, ptr %5, align 4, !tbaa !14
  %56 = icmp sge i32 %55, 3
  br i1 %56, label %57, label %60

57:                                               ; preds = %54
  %58 = load i32, ptr %5, align 4, !tbaa !14
  %59 = icmp sle i32 %58, 8
  br label %60

60:                                               ; preds = %57, %54
  %61 = phi i1 [ false, %54 ], [ %59, %57 ]
  store i1 %61, ptr %3, align 1
  store i32 1, ptr %9, align 4
  br label %62

62:                                               ; preds = %60, %52
  call void @llvm.lifetime.end.p0(i64 4, ptr %5) #13
  %63 = load i1, ptr %3, align 1
  ret i1 %63
}