; Function Attrs: mustprogress uwtable
define internal fastcc noundef zeroext i1 @_ZN12_GLOBAL__N_124isSpecialTypeReorderCodeESt17basic_string_viewIcSt11char_traitsIcEE(i64 %0, ptr readonly %1) unnamed_addr #1 {
  %3 = getelementptr inbounds nuw i8, ptr %1, i64 %0
  %.not30 = icmp samesign eq i64 %0, 0
  br i1 %.not30, label %._crit_edge, label %.lr.ph

.lr.ph:                                           ; preds = %2, %11
  %.01932 = phi i32 [ %.22129, %11 ], [ 0, %2 ]
  %.02331 = phi ptr [ %12, %11 ], [ %1, %2 ]
  %4 = load i8, ptr %.02331, align 1, !tbaa !69
  %5 = icmp eq i8 %4, 45
  br i1 %5, label %9, label %6

6:                                                ; preds = %.lr.ph
  %7 = tail call signext i8 @uprv_isASCIILetter_77(i8 noundef signext %4)
  %.not24 = icmp ne i8 %7, 0
  %8 = zext i1 %.not24 to i32
  %spec.select26 = add nsw i32 %.01932, %8
  br i1 %.not24, label %11, label %._crit_edge.loopexit

9:                                                ; preds = %.lr.ph
  %10 = add i32 %.01932, -3
  %or.cond = icmp ult i32 %10, 6
  br i1 %or.cond, label %11, label %._crit_edge.loopexit

11:                                               ; preds = %6, %9
  %.22129 = phi i32 [ %spec.select26, %6 ], [ 0, %9 ]
  %12 = getelementptr inbounds nuw i8, ptr %.02331, i64 1
  %.not = icmp eq ptr %12, %3
  br i1 %.not, label %._crit_edge.loopexit, label %.lr.ph

._crit_edge.loopexit:                             ; preds = %6, %11, %9
  %.not.lcssa.ph = phi i1 [ false, %9 ], [ true, %11 ], [ false, %6 ]
  %.120.ph = phi i32 [ %.01932, %9 ], [ %.22129, %11 ], [ %spec.select26, %6 ]
  %13 = add i32 %.120.ph, -3
  %14 = icmp ult i32 %13, 6
  %15 = select i1 %.not.lcssa.ph, i1 %14, i1 false
  br label %._crit_edge

._crit_edge:                                      ; preds = %._crit_edge.loopexit, %2
  %.not.lcssa = phi i1 [ false, %2 ], [ %15, %._crit_edge.loopexit ]
  ret i1 %.not.lcssa
}